(dp0
I0
(ibook
book
p1
(dp2
S'title'
p3
S'tit'
p4
sS'year'
p5
S'2000'
p6
sS'id'
p7
I0
sS'author'
p8
S'joao'
p9
sbsI1
(ibook
book
p10
(dp11
g3
S'tit1'
p12
sg5
S'2000'
p13
sg7
I1
sg8
S'Joao'
p14
sbsI2
(ibook
book
p15
(dp16
g3
S'tit2'
p17
sg5
S'2001'
p18
sg7
I2
sg8
g14
sbsI3
(ibook
book
p19
(dp20
g3
S'tit3'
p21
sg5
S'2002'
p22
sg7
I3
sg8
g14
sbsI4
(ibook
book
p23
(dp24
g3
S'tit32'
p25
sg5
S'2012'
p26
sg7
I4
sg8
S'Jose'
p27
sbs.